; Function Attrs: mustprogress nounwind uwtable
define dso_local void @_ZN4llvm18VLIWPacketizerListC2ERNS_15MachineFunctionERNS_15MachineLoopInfoEPNS_9AAResultsE(ptr noundef nonnull align 8 dereferenceable(120) initializes((0, 32), (40, 64), (80, 84), (88, 96)) %0, ptr noundef nonnull align 8 dereferenceable(1041) %1, ptr noundef nonnull align 1 %2, ptr noundef %3) unnamed_addr #0 align 2 {
  store ptr getelementptr inbounds nuw inrange(-16, 80) (i8, ptr @_ZTVN4llvm18VLIWPacketizerListE, i64 16), ptr %0, align 8
  %5 = getelementptr inbounds nuw i8, ptr %0, i64 8
  store ptr %1, ptr %5, align 8
  %6 = getelementptr inbounds nuw i8, ptr %0, i64 16
  %7 = getelementptr inbounds nuw i8, ptr %1, i64 16
  %8 = load ptr, ptr %7, align 8
  %9 = load ptr, ptr %8, align 8
  %10 = getelementptr inbounds nuw i8, ptr %9, i64 128
  %11 = load ptr, ptr %10, align 8
  %12 = tail call noundef ptr %11(ptr noundef nonnull align 8 dereferenceable(288) %8) #17
  store ptr %12, ptr %6, align 8
  %13 = getelementptr inbounds nuw i8, ptr %0, i64 24
  store ptr %3, ptr %13, align 8
  %14 = getelementptr inbounds nuw i8, ptr %0, i64 40
  tail call void @llvm.memset.p0.i64(ptr noundef nonnull align 8 dereferenceable(24) %14, i8 0, i64 24, i1 false)
  %15 = getelementptr inbounds nuw i8, ptr %0, i64 80
  store i32 0, ptr %15, align 8
  %16 = getelementptr inbounds nuw i8, ptr %0, i64 88
  store ptr null, ptr %16, align 8
  %17 = getelementptr inbounds nuw i8, ptr %0, i64 96
  store ptr %15, ptr %17, align 8
  %18 = getelementptr inbounds nuw i8, ptr %0, i64 104
  store ptr %15, ptr %18, align 8
  %19 = getelementptr inbounds nuw i8, ptr %0, i64 112
  store i64 0, ptr %19, align 8
  %20 = load ptr, ptr %5, align 8
  %21 = getelementptr inbounds nuw i8, ptr %20, i64 16
  %22 = load ptr, ptr %21, align 8
  %23 = load ptr, ptr %12, align 8
  %24 = getelementptr inbounds nuw i8, ptr %23, i64 1128
  %25 = load ptr, ptr %24, align 8
  %26 = tail call noundef ptr %25(ptr noundef nonnull align 8 dereferenceable(80) %12, ptr noundef nonnull align 8 dereferenceable(288) %22) #17
  %27 = getelementptr inbounds nuw i8, ptr %0, i64 64
  store ptr %26, ptr %27, align 8
  %28 = getelementptr inbounds nuw i8, ptr %26, i64 48
  store i8 1, ptr %28, align 8
  %29 = tail call noalias noundef nonnull dereferenceable(2656) ptr @_Znwm(i64 noundef 2656) #18
  %30 = load ptr, ptr %5, align 8
  %31 = load ptr, ptr %13, align 8
  tail call void @_ZN4llvm20DefaultVLIWSchedulerC1ERNS_15MachineFunctionERNS_15MachineLoopInfoEPNS_9AAResultsE(ptr noundef nonnull align 8 dereferenceable(2656) %29, ptr noundef nonnull align 8 dereferenceable(1041) %30, ptr noundef nonnull align 1 %2, ptr noundef %31) #17
  %32 = getelementptr inbounds nuw i8, ptr %0, i64 32
  store ptr %29, ptr %32, align 8
  ret void
}